target datalayout = "e-m:e-p270:32:32-p271:32:32-p272:64:64-i64:64-i128:128-f80:128-n8:16:32:64-S128"
target triple = "x86_64-pc-linux-gnu"

@s_Truths6 = internal global [6 x i64] [i64 -6148914691236517206, i64 -3689348814741910324, i64 -1085102592571150096, i64 -71777214294589696, i64 -281470681808896, i64 -4294967296], align 16
@s_Truths6Neg = internal global [6 x i64] [i64 6148914691236517205, i64 3689348814741910323, i64 1085102592571150095, i64 71777214294589695, i64 281470681808895, i64 4294967295], align 16

; Function Attrs: inlinehint nounwind uwtable
define internal i32 @Abc_Tt6HasVar(i64 noundef %0, i32 noundef %1) #3 {
  %3 = alloca i64, align 8
  %4 = alloca i32, align 4
  store i64 %0, ptr %3, align 8, !tbaa !3
  store i32 %1, ptr %4, align 4, !tbaa !7
  %5 = load i64, ptr %3, align 8, !tbaa !3
  %6 = load i32, ptr %4, align 4, !tbaa !7
  %7 = shl i32 1, %6
  %8 = zext i32 %7 to i64
  %9 = lshr i64 %5, %8
  %10 = load i32, ptr %4, align 4, !tbaa !7
  %11 = sext i32 %10 to i64
  %12 = getelementptr inbounds [6 x i64], ptr @s_Truths6Neg, i64 0, i64 %11
  %13 = load i64, ptr %12, align 8, !tbaa !3
  %14 = and i64 %9, %13
  %15 = load i64, ptr %3, align 8, !tbaa !3
  %16 = load i32, ptr %4, align 4, !tbaa !7
  %17 = sext i32 %16 to i64
  %18 = getelementptr inbounds [6 x i64], ptr @s_Truths6Neg, i64 0, i64 %17
  %19 = load i64, ptr %18, align 8, !tbaa !3
  %20 = and i64 %15, %19
  %21 = icmp ne i64 %14, %20
  %22 = zext i1 %21 to i32
  ret i32 %22
}

; Function Attrs: inlinehint nounwind uwtable
define internal i64 @Abc_Tt6Cofactor0(i64 noundef %0, i32 noundef %1) #3 {
  %3 = alloca i64, align 8
  %4 = alloca i32, align 4
  store i64 %0, ptr %3, align 8, !tbaa !3
  store i32 %1, ptr %4, align 4, !tbaa !7
  %5 = load i64, ptr %3, align 8, !tbaa !3
  %6 = load i32, ptr %4, align 4, !tbaa !7
  %7 = sext i32 %6 to i64
  %8 = getelementptr inbounds [6 x i64], ptr @s_Truths6Neg, i64 0, i64 %7
  %9 = load i64, ptr %8, align 8, !tbaa !3
  %10 = and i64 %5, %9
  %11 = load i64, ptr %3, align 8, !tbaa !3
  %12 = load i32, ptr %4, align 4, !tbaa !7
  %13 = sext i32 %12 to i64
  %14 = getelementptr inbounds [6 x i64], ptr @s_Truths6Neg, i64 0, i64 %13
  %15 = load i64, ptr %14, align 8, !tbaa !3
  %16 = and i64 %11, %15
  %17 = load i32, ptr %4, align 4, !tbaa !7
  %18 = shl i32 1, %17
  %19 = zext i32 %18 to i64
  %20 = shl i64 %16, %19
  %21 = or i64 %10, %20
  ret i64 %21
}

; Function Attrs: inlinehint nounwind uwtable
define internal i64 @Abc_Tt6Cofactor1(i64 noundef %0, i32 noundef %1) #3 {
  %3 = alloca i64, align 8
  %4 = alloca i32, align 4
  store i64 %0, ptr %3, align 8, !tbaa !3
  store i32 %1, ptr %4, align 4, !tbaa !7
  %5 = load i64, ptr %3, align 8, !tbaa !3
  %6 = load i32, ptr %4, align 4, !tbaa !7
  %7 = sext i32 %6 to i64
  %8 = getelementptr inbounds [6 x i64], ptr @s_Truths6, i64 0, i64 %7
  %9 = load i64, ptr %8, align 8, !tbaa !3
  %10 = and i64 %5, %9
  %11 = load i64, ptr %3, align 8, !tbaa !3
  %12 = load i32, ptr %4, align 4, !tbaa !7
  %13 = sext i32 %12 to i64
  %14 = getelementptr inbounds [6 x i64], ptr @s_Truths6, i64 0, i64 %13
  %15 = load i64, ptr %14, align 8, !tbaa !3
  %16 = and i64 %11, %15
  %17 = load i32, ptr %4, align 4, !tbaa !7
  %18 = shl i32 1, %17
  %19 = zext i32 %18 to i64
  %20 = lshr i64 %16, %19
  %21 = or i64 %10, %20
  ret i64 %21
}

; Function Attrs: inlinehint nounwind uwtable
define internal i32 @Abc_Tt6Check1(i64 noundef %0, i32 noundef %1) #3 {
  %3 = alloca i32, align 4
  %4 = alloca i64, align 8
  %5 = alloca i32, align 4
  %6 = alloca i32, align 4
  %7 = alloca i32, align 4
  %8 = alloca i32, align 4
  %9 = alloca i64, align 8
  %10 = alloca i32, align 4
  store i64 %0, ptr %4, align 8, !tbaa !3
  store i32 %1, ptr %5, align 4, !tbaa !7
  call void @llvm.lifetime.start.p0(i64 4, ptr %6) #7
  call void @llvm.lifetime.start.p0(i64 4, ptr %7) #7
  call void @llvm.lifetime.start.p0(i64 4, ptr %8) #7
  store i32 0, ptr %6, align 4, !tbaa !7
  br label %11

11:                                               ; preds = %58, %2
  %12 = load i32, ptr %6, align 4, !tbaa !7
  %13 = icmp slt i32 %12, 2
  br i1 %13, label %14, label %61

14:                                               ; preds = %11
  store i32 0, ptr %7, align 4, !tbaa !7
  br label %15

15:                                               ; preds = %54, %14
  %16 = load i32, ptr %7, align 4, !tbaa !7
  %17 = load i32, ptr %5, align 4, !tbaa !7
  %18 = icmp slt i32 %16, %17
  br i1 %18, label %19, label %57

19:                                               ; preds = %15
  call void @llvm.lifetime.start.p0(i64 8, ptr %9) #7
  %20 = load i32, ptr %6, align 4, !tbaa !7
  %21 = icmp ne i32 %20, 0
  br i1 %21, label %22, label %26

22:                                               ; preds = %19
  %23 = load i64, ptr %4, align 8, !tbaa !3
  %24 = load i32, ptr %7, align 4, !tbaa !7
  %25 = call i64 @Abc_Tt6Cofactor1(i64 noundef %23, i32 noundef %24)
  br label %30

26:                                               ; preds = %19
  %27 = load i64, ptr %4, align 8, !tbaa !3
  %28 = load i32, ptr %7, align 4, !tbaa !7
  %29 = call i64 @Abc_Tt6Cofactor0(i64 noundef %27, i32 noundef %28)
  br label %30

30:                                               ; preds = %26, %22
  %31 = phi i64 [ %25, %22 ], [ %29, %26 ]
  store i64 %31, ptr %9, align 8, !tbaa !3
  store i32 0, ptr %8, align 4, !tbaa !7
  br label %32

32:                                               ; preds = %47, %30
  %33 = load i32, ptr %8, align 4, !tbaa !7
  %34 = load i32, ptr %5, align 4, !tbaa !7
  %35 = icmp slt i32 %33, %34
  br i1 %35, label %36, label %50

36:                                               ; preds = %32
  %37 = load i32, ptr %7, align 4, !tbaa !7
  %38 = load i32, ptr %8, align 4, !tbaa !7
  %39 = icmp ne i32 %37, %38
  br i1 %39, label %40, label %46

40:                                               ; preds = %36
  %41 = load i64, ptr %9, align 8, !tbaa !3
  %42 = load i32, ptr %8, align 4, !tbaa !7
  %43 = call i32 @Abc_Tt6HasVar(i64 noundef %41, i32 noundef %42)
  %44 = icmp ne i32 %43, 0
  br i1 %44, label %46, label %45

45:                                               ; preds = %40
  store i32 1, ptr %3, align 4
  store i32 1, ptr %10, align 4
  br label %51

46:                                               ; preds = %40, %36
  br label %47

47:                                               ; preds = %46
  %48 = load i32, ptr %8, align 4, !tbaa !7
  %49 = add nsw i32 %48, 1
  store i32 %49, ptr %8, align 4, !tbaa !7
  br label %32, !llvm.loop !76

50:                                               ; preds = %32
  store i32 0, ptr %10, align 4
  br label %51

51:                                               ; preds = %50, %45
  call void @llvm.lifetime.end.p0(i64 8, ptr %9) #7
  %52 = load i32, ptr %10, align 4
  switch i32 %52, label %62 [
    i32 0, label %53
  ]

53:                                               ; preds = %51
  br label %54

54:                                               ; preds = %53
  %55 = load i32, ptr %7, align 4, !tbaa !7
  %56 = add nsw i32 %55, 1
  store i32 %56, ptr %7, align 4, !tbaa !7
  br label %15, !llvm.loop !77

57:                                               ; preds = %15
  br label %58

58:                                               ; preds = %57
  %59 = load i32, ptr %6, align 4, !tbaa !7
  %60 = add nsw i32 %59, 1
  store i32 %60, ptr %6, align 4, !tbaa !7
  br label %11, !llvm.loop !78

61:                                               ; preds = %11
  store i32 0, ptr %3, align 4
  store i32 1, ptr %10, align 4
  br label %62

62:                                               ; preds = %61, %51
  call void @llvm.lifetime.end.p0(i64 4, ptr %8) #7
  call void @llvm.lifetime.end.p0(i64 4, ptr %7) #7
  call void @llvm.lifetime.end.p0(i64 4, ptr %6) #7
  %63 = load i32, ptr %3, align 4
  ret i32 %63
}

; Function Attrs: nounwind uwtable
define i32 @If_MatchCheck1(ptr noundef %0, ptr noundef %1, i32 noundef %2, i32 noundef %3, ptr noundef %4) #0 {
  %6 = alloca i32, align 4
  %7 = alloca ptr, align 8
  %8 = alloca ptr, align 8
  %9 = alloca i32, align 4
  %10 = alloca i32, align 4
  %11 = alloca ptr, align 8
  store ptr %0, ptr %7, align 8, !tbaa !70
  store ptr %1, ptr %8, align 8, !tbaa !27
  store i32 %2, ptr %9, align 4, !tbaa !7
  store i32 %3, ptr %10, align 4, !tbaa !7
  store ptr %4, ptr %11, align 8, !tbaa !42
  %12 = load i32, ptr %10, align 4, !tbaa !7
  %13 = load i32, ptr %9, align 4, !tbaa !7
  %14 = icmp slt i32 %12, %13
  br i1 %14, label %15, label %16

15:                                               ; preds = %5
  store i32 1, ptr %6, align 4
  br label %25

16:                                               ; preds = %5
  %17 = load ptr, ptr %8, align 8, !tbaa !27
  %18 = getelementptr inbounds i64, ptr %17, i64 0
  %19 = load i64, ptr %18, align 8, !tbaa !3
  %20 = load i32, ptr %10, align 4, !tbaa !7
  %21 = call i32 @Abc_Tt6Check1(i64 noundef %19, i32 noundef %20)
  %22 = icmp ne i32 %21, 0
  br i1 %22, label %23, label %24

23:                                               ; preds = %16
  store i32 1, ptr %6, align 4
  br label %25

24:                                               ; preds = %16
  store i32 0, ptr %6, align 4
  br label %25

25:                                               ; preds = %24, %23, %15
  %26 = load i32, ptr %6, align 4
  ret i32 %26
}