; Function Attrs: nofree norecurse nosync nounwind memory(argmem: read) uwtable
define range(i32 0, 2) i32 @If_MatchCheck1(ptr noundef readnone captures(none) %0, ptr noundef readonly captures(none) %1, i32 noundef %2, i32 noundef %3, ptr noundef readnone captures(none) %4) local_unnamed_addr #5 {
  %6 = icmp slt i32 %3, %2
  br i1 %6, label %Abc_Tt6Check1.exit, label %7

7:                                                ; preds = %5
  %8 = load i64, ptr %1, align 8, !tbaa !10
  %9 = icmp sgt i32 %3, 0
  br i1 %9, label %.preheader.us.preheader.i, label %Abc_Tt6Check1.exit

.preheader.us.preheader.i:                        ; preds = %7
  %wide.trip.count44.i = zext nneg i32 %3 to i64
  br label %.preheader.us.i

.preheader.us.i:                                  ; preds = %._crit_edge.split.us.us.i, %.preheader.us.preheader.i
  %.not.us.i = phi i1 [ false, %._crit_edge.split.us.us.i ], [ true, %.preheader.us.preheader.i ]
  br i1 %.not.us.i, label %.lr.ph.us.us.us.i, label %.lr.ph.us.us.i

.lr.ph.us.us.us.i:                                ; preds = %.preheader.us.i, %..critedge_crit_edge.us.us.us.i
  %indvars.iv51.i = phi i64 [ %indvars.iv.next52.i, %..critedge_crit_edge.us.us.us.i ], [ 0, %.preheader.us.i ]
  %10 = getelementptr inbounds nuw [6 x i64], ptr @s_Truths6Neg, i64 0, i64 %indvars.iv51.i
  %11 = load i64, ptr %10, align 8, !tbaa !10
  %12 = and i64 %11, %8
  %13 = trunc nuw nsw i64 %indvars.iv51.i to i32
  %14 = shl nuw i32 1, %13
  %15 = zext nneg i32 %14 to i64
  %16 = shl i64 %12, %15
  %17 = or i64 %16, %12
  br label %18

18:                                               ; preds = %28, %.lr.ph.us.us.us.i
  %indvars.iv46.i = phi i64 [ %indvars.iv.next47.i, %28 ], [ 0, %.lr.ph.us.us.us.i ]
  %.not24.us.us.us.i = icmp eq i64 %indvars.iv51.i, %indvars.iv46.i
  br i1 %.not24.us.us.us.i, label %28, label %19

19:                                               ; preds = %18
  %20 = trunc nuw nsw i64 %indvars.iv46.i to i32
  %21 = shl nuw i32 1, %20
  %22 = zext nneg i32 %21 to i64
  %23 = lshr i64 %17, %22
  %24 = getelementptr inbounds nuw [6 x i64], ptr @s_Truths6Neg, i64 0, i64 %indvars.iv46.i
  %25 = load i64, ptr %24, align 8, !tbaa !10
  %26 = xor i64 %23, %17
  %27 = and i64 %25, %26
  %.not27.us.us.us.i = icmp eq i64 %27, 0
  br i1 %.not27.us.us.us.i, label %Abc_Tt6Check1.exit, label %28

28:                                               ; preds = %19, %18
  %indvars.iv.next47.i = add nuw nsw i64 %indvars.iv46.i, 1
  %exitcond50.not.i = icmp eq i64 %indvars.iv.next47.i, %wide.trip.count44.i
  br i1 %exitcond50.not.i, label %..critedge_crit_edge.us.us.us.i, label %18, !llvm.loop !68

..critedge_crit_edge.us.us.us.i:                  ; preds = %28
  %indvars.iv.next52.i = add nuw nsw i64 %indvars.iv51.i, 1
  %exitcond55.not.i = icmp eq i64 %indvars.iv.next52.i, %wide.trip.count44.i
  br i1 %exitcond55.not.i, label %._crit_edge.split.us.us.i, label %.lr.ph.us.us.us.i, !llvm.loop !69

.lr.ph.us.us.i:                                   ; preds = %.preheader.us.i, %..critedge_crit_edge.us.us.i
  %indvars.iv41.i = phi i64 [ %indvars.iv.next42.i, %..critedge_crit_edge.us.us.i ], [ 0, %.preheader.us.i ]
  %29 = getelementptr inbounds nuw [6 x i64], ptr @s_Truths6, i64 0, i64 %indvars.iv41.i
  %30 = load i64, ptr %29, align 8, !tbaa !10
  %31 = and i64 %30, %8
  %32 = trunc nuw nsw i64 %indvars.iv41.i to i32
  %33 = shl nuw i32 1, %32
  %34 = zext nneg i32 %33 to i64
  %35 = lshr i64 %31, %34
  %36 = or i64 %35, %31
  br label %37

37:                                               ; preds = %47, %.lr.ph.us.us.i
  %indvars.iv.i = phi i64 [ %indvars.iv.next.i, %47 ], [ 0, %.lr.ph.us.us.i ]
  %.not24.us.us.i = icmp eq i64 %indvars.iv41.i, %indvars.iv.i
  br i1 %.not24.us.us.i, label %47, label %38

38:                                               ; preds = %37
  %39 = trunc nuw nsw i64 %indvars.iv.i to i32
  %40 = shl nuw i32 1, %39
  %41 = zext nneg i32 %40 to i64
  %42 = lshr i64 %36, %41
  %43 = getelementptr inbounds nuw [6 x i64], ptr @s_Truths6Neg, i64 0, i64 %indvars.iv.i
  %44 = load i64, ptr %43, align 8, !tbaa !10
  %45 = xor i64 %42, %36
  %46 = and i64 %44, %45
  %.not27.us.us.i = icmp eq i64 %46, 0
  br i1 %.not27.us.us.i, label %Abc_Tt6Check1.exit, label %47

47:                                               ; preds = %38, %37
  %indvars.iv.next.i = add nuw nsw i64 %indvars.iv.i, 1
  %exitcond.not.i = icmp eq i64 %indvars.iv.next.i, %wide.trip.count44.i
  br i1 %exitcond.not.i, label %..critedge_crit_edge.us.us.i, label %37, !llvm.loop !68

..critedge_crit_edge.us.us.i:                     ; preds = %47
  %indvars.iv.next42.i = add nuw nsw i64 %indvars.iv41.i, 1
  %exitcond45.not.i = icmp eq i64 %indvars.iv.next42.i, %wide.trip.count44.i
  br i1 %exitcond45.not.i, label %._crit_edge.split.us.us.i, label %.lr.ph.us.us.i, !llvm.loop !69

._crit_edge.split.us.us.i:                        ; preds = %..critedge_crit_edge.us.us.i, %..critedge_crit_edge.us.us.us.i
  br i1 %.not.us.i, label %.preheader.us.i, label %Abc_Tt6Check1.exit, !llvm.loop !70

Abc_Tt6Check1.exit:                               ; preds = %._crit_edge.split.us.us.i, %38, %19, %7, %5
  %.0 = phi i32 [ 1, %5 ], [ 0, %7 ], [ 1, %19 ], [ 1, %38 ], [ 0, %._crit_edge.split.us.us.i ]
  ret i32 %.0
}